(dp0
S'ypos'
p1
I403
sS'length'
p2
I180
sS'angle'
p3
I20
sS'name'
p4
S'Gosper curve'
p5
sS'Dgen'
p6
S'+D---D+++D-'
p7
sS'dgen'
p8
S''
p9
sS'xpos'
p10
I145
sS'axiom'
p11
S'D---D---D---D---D---D---'
p12
sS'divisor'
p13
F2.6457510000000002
s.