(dp0
S'ypos'
p1
I131
sS'length'
p2
I300
sS'angle'
p3
I45
sS'name'
p4
S'Harter-Heightway Dragon curve'
p5
sS'Rgen'
p6
S'+L--R+'
p7
sS'xpos'
p8
I80
sS'maxlevel'
p9
I24
sS'axiom'
p10
S'R'
p11
sS'Lgen'
p12
S'-L++R-'
p13
sS'divisor'
p14
F1.41412
s.