(dp0
S'axiom'
p1
S'L'
p2
sS'maxlevel'
p3
F12.0
sS'sangle'
p4
F0.0
sS'name'
p5
S'Testing'
p6
sS'length'
p7
F200.0
sS'Lgen'
p8
S'+RDX-LDL-XDR+'
p9
sS'ypos'
p10
I103
sS'Rgen'
p11
S'-LDX+RDR+XDL-'
p12
sS'Dgen'
p13
S'DXX'
p14
sS'divisor'
p15
F2.33333
sS'angle'
p16
F90.0
sS'xpos'
p17
I103
s.