(dp0
S'ypos'
p1
I383
sS'length'
p2
I200
sS'angle'
p3
F90.0
sS'name'
p4
S'Islands'
p5
sS'Dgen'
p6
S'D-d+DD-D-DD-Dd-DD+d-DD+D+DD+Dd+DDD'
p7
sS'dgen'
p8
S'dddddd'
p9
sS'xpos'
p10
I132
sS'axiom'
p11
S'D-D-D-D-'
p12
sS'divisor'
p13
F6.0
s.