(dp0
S'xpos'
p1
F100.0
sS'angle'
p2
F60.0
sS'divisor'
p3
F2.6457999999999999
sS'Rgen'
p4
S'+L-RR--R-L++L+R'
p5
sS'sagnle'
p6
F90.0
sS'ypos'
p7
F250.0
sS'Lgen'
p8
S'L-R--R+L++LL+R-'
p9
sS'length'
p10
F200.0
sS'sangle'
p11
F0.0
sS'maxlevel'
p12
F6.0
sS'axiom'
p13
S'R'
p14
sS'name'
p15
S'Peano-Gosper curve'
p16
s.