(dp0
S'Ypos'
p1
I374
sS'length'
p2
I250
sS'angle'
p3
I90
sS'name'
p4
S'18 Segment Quadric Von Koch Curve'
p5
sS'Dgen'
p6
S'D+Dd-Dd-D-D+D+Dd-D-D+D+Dd+Dd-D'
p7
sS'xpos'
p8
I120
sS'maxlevel'
p9
I4
sS'axiom'
p10
S'D-D-D-D-'
p11
sS'divisor'
p12
I6
s.
