(dp0
S'ypos'
p1
I131
sS'sangle'
p2
I90
sS'length'
p3
I300
sS'angle'
p4
I60
sS'name'
p5
S'Sierpinski Triangle'
p6
sS'Rgen'
p7
S'-L+R+L-'
p8
sS'xpos'
p9
I100
sS'maxlevel'
p10
I9
sS'axiom'
p11
S'R'
p12
sS'divisor'
p13
I2
s.