(dp0
S'length'
p1
F100.0
sS'angle'
p2
F23.0
sS'divisor'
p3
F2.0
sS'Dgen'
p4
S'DD+[+D-D-D]-[-D+D+D]'
p5
sS'name'
p6
S'Tree 2'
p7
sS'sangle'
p8
F90.0
sS'axiom'
p9
S'D'
p10
sS'maxlevel'
p11
F5.0
sS'xpos'
p12
F200.0
sS'ypos'
p13
F25.0
s.