(dp0
S'xpos'
p1
I200
sS'divisor'
p2
F2.7000000000000002
sS'angle'
p3
F26.5
sS'name'
p4
S'Tree 2'
p5
sS'Dgen'
p6
S'D[-D]D[+D]D'
p7
sS'sangle'
p8
I90
sS'axiom'
p9
S'D'
p10
sS'maxlevel'
p11
I12
sS'length'
p12
I250
sS'ypos'
p13
I25
s.